Certificate:
    Data:
        Version: 3 (0x2)
        Serial Number: 4097 (0x1001)
        Signature Algorithm: md5WithRSAEncryption
        Issuer: C=US, ST=Utah, L=Salt Lake City, O=The University of Utah, OU=MSD, CN=XXY Personal CA/emailAddress=710850142@qq.com
        Validity
            Not Before: Mar 15 00:32:05 2024 GMT
            Not After : Mar 15 00:32:05 2025 GMT
        Subject: C=US, ST=Utah, O=The University of Utah, OU=MSD, CN=XXY Personal Client/emailAddress=710850142@qq.com
        Subject Public Key Info:
            Public Key Algorithm: rsaEncryption
                Public-Key: (4096 bit)
                Modulus:
                    00:b4:1f:d5:8a:a3:c9:e4:4f:64:9d:e0:1d:18:e3:
                    77:73:91:28:06:f8:b5:29:83:6c:51:89:ee:0b:20:
                    2f:1d:cf:a8:09:fc:c8:af:43:89:83:f2:40:20:32:
                    5c:4a:d1:88:0a:10:f6:91:ee:bc:97:20:ce:c6:d4:
                    a3:b9:15:07:19:01:65:3b:28:33:22:4a:bd:26:bd:
                    fd:14:32:a0:42:2e:30:4c:2f:5e:b0:2c:b6:85:06:
                    d4:41:34:03:0d:ef:81:d0:a1:86:c5:62:8d:0c:bb:
                    70:eb:a6:ff:81:bd:12:e4:fe:ee:52:55:fd:64:43:
                    6c:b3:81:e0:18:0c:75:47:28:79:c5:5c:34:35:00:
                    67:17:8d:0b:05:ca:7a:7a:af:72:2b:3f:49:c6:86:
                    49:97:04:9e:eb:0b:a0:2c:39:7b:32:0b:27:54:39:
                    38:b9:b0:e1:77:60:64:51:8d:ae:8d:7b:b9:c0:20:
                    c3:04:42:08:ee:41:db:92:83:40:49:9f:a7:be:60:
                    29:ad:2e:95:ab:ef:79:a2:8f:5a:72:a0:67:56:13:
                    6c:44:82:fd:d7:cf:1c:0f:6a:e0:58:c4:11:da:2a:
                    90:a9:11:9a:c4:17:9a:66:44:0a:46:e2:0e:bc:e0:
                    24:fd:cd:38:5e:dd:ea:0d:e4:23:76:8a:e9:3c:b1:
                    85:75:63:83:5c:88:ba:39:fa:70:64:dd:38:28:49:
                    e1:6a:3d:d6:cc:87:40:44:c1:84:50:6d:00:8e:a4:
                    63:b0:9d:a0:9a:8a:c4:5d:98:1c:21:2b:65:98:60:
                    8b:53:9e:b8:3f:32:29:d4:40:bb:47:01:ce:22:e1:
                    c4:bb:a0:9c:7c:a5:44:a4:4f:3d:4e:24:9b:6f:17:
                    bc:e0:e7:30:ab:6e:4c:c9:ad:2b:18:b3:55:26:53:
                    83:8d:ba:8d:a9:1c:47:27:33:be:94:47:af:91:08:
                    06:88:f1:fd:c5:b2:e1:51:ea:28:f3:8c:a0:1d:df:
                    00:c3:97:b2:32:9c:e4:ec:b5:d9:30:07:c2:ed:62:
                    70:70:da:a6:f6:38:58:6a:da:fc:78:0b:0b:31:70:
                    c7:98:f2:ae:98:c5:4c:82:64:da:bd:05:0e:cf:91:
                    d7:c1:99:0c:97:2a:d7:db:9f:e8:1e:96:e7:68:16:
                    fc:74:c4:5e:28:b6:e6:65:ba:b6:60:b0:60:7b:98:
                    49:96:e5:7e:b5:c6:bb:65:f6:cc:04:42:4a:23:a3:
                    09:b8:26:42:c8:e0:cb:4d:6e:0f:6a:0c:b1:76:48:
                    77:36:73:94:d9:a2:53:77:b8:ff:56:59:da:ef:b7:
                    ba:ed:7b:45:21:11:dd:6e:66:bf:e5:68:60:dd:ac:
                    e1:99:33
                Exponent: 65537 (0x10001)
        X509v3 extensions:
            X509v3 Basic Constraints: 
                CA:FALSE
            Netscape Comment: 
                OpenSSL Generated Certificate
            X509v3 Subject Key Identifier: 
                09:B4:EA:DA:E0:BE:7E:BA:FF:51:FB:3B:42:B7:EB:ED:38:C0:46:6A
            X509v3 Authority Key Identifier: 
                keyid:A4:81:9F:7C:C5:DD:D0:6E:E9:2C:AC:46:9D:95:89:2C:91:3B:9F:91
                DirName:/C=US/ST=Utah/L=Salt Lake City/O=The University of Utah/OU=MSD/CN=XXY Personal CA/emailAddress=710850142@qq.com
                serial:71:73:55:D5:14:5C:DA:5E:3B:F9:E6:D2:59:DD:42:4B:80:1B:DE:F1
    Signature Algorithm: md5WithRSAEncryption
    Signature Value:
        0a:82:eb:f8:f8:0f:84:c3:40:09:01:c4:5e:51:da:0b:e3:6e:
        4d:02:fb:c3:96:35:cf:e8:48:a3:0a:2f:55:9e:96:46:c9:4b:
        fd:d2:36:bd:36:73:7e:42:f3:2a:be:6b:27:6a:f9:77:1d:44:
        6c:fa:83:c3:9b:d6:1e:b0:03:58:46:24:6f:e3:d2:03:6d:fa:
        4a:0d:4d:1a:70:c6:17:bd:81:44:34:b7:2e:59:b2:58:28:59:
        d3:82:32:e8:1e:5e:0a:62:f6:a1:4e:d9:7a:0d:88:17:ac:9a:
        4d:51:55:f4:b8:8e:4a:20:9d:04:d3:c7:83:3d:0d:02:41:50:
        ff:03:a5:14:88:d8:e4:48:bf:9f:dc:37:26:3e:b8:a6:e4:23:
        52:63:53:8c:01:e7:3d:29:90:c7:09:15:45:41:68:4f:ba:fb:
        21:8f:fb:7b:41:15:09:3e:d3:8d:59:83:fe:96:fb:fb:11:ab:
        d1:5a:61:40:20:a2:33:ed:de:42:23:fd:8a:ec:5e:69:a3:e7:
        b1:86:fc:53:1a:a8:ee:df:73:2a:c7:fb:f5:d2:0e:5c:19:3c:
        f1:47:d6:7f:49:8f:ac:ad:bf:65:38:55:ad:cb:58:aa:c3:95:
        d3:35:42:8f:7b:45:e5:92:84:b5:62:50:7b:da:17:89:00:b6:
        d0:86:d8:95:79:87:9b:0b:74:75:80:7b:29:4b:85:61:c5:19:
        7f:d4:a1:0e:92:bf:b6:0b:d5:e1:82:d9:ed:de:9c:05:ca:85:
        3e:bb:33:6e:db:69:cc:40:6c:d8:35:34:a9:a7:65:91:80:45:
        4c:fe:84:b6:9a:5b:f1:c8:d9:34:04:a3:0b:fd:93:07:14:65:
        b1:bc:51:fa:a9:59:10:e2:7d:47:c9:b7:05:0b:a2:3d:ac:51:
        34:14:ef:68:0f:b8:c0:18:80:06:9d:87:7b:ab:75:0d:89:7a:
        1a:e4:bc:e5:97:73:0c:cb:f6:3e:46:61:bb:af:b6:48:91:b9:
        ee:d5:69:41:dc:96:e7:68:c0:a9:ec:72:18:04:9a:fb:ab:b4:
        a2:24:48:2d:53:ae:f3:29:f4:32:66:c4:fa:44:cc:30:84:73:
        ab:62:a1:0f:2e:d3:41:e5:75:03:df:74:c6:a3:61:30:49:81:
        a4:a0:fc:4a:0c:b6:e5:80:b8:9d:a8:71:bf:32:5b:ff:84:84:
        24:93:1a:67:71:09:32:55:e8:26:37:f9:f6:27:35:ed:ff:f9:
        38:6e:ab:a8:12:60:0f:33:d9:8a:bb:05:79:d6:a9:e7:8d:ee:
        fe:cf:eb:95:c2:79:fe:38:c5:de:bf:84:51:bc:96:34:ef:17:
        31:08:e3:6f:3f:11:2b:d4
-----BEGIN CERTIFICATE-----
MIIG5zCCBM+gAwIBAgICEAEwDQYJKoZIhvcNAQEEBQAwgZ8xCzAJBgNVBAYTAlVT
MQ0wCwYDVQQIDARVdGFoMRcwFQYDVQQHDA5TYWx0IExha2UgQ2l0eTEfMB0GA1UE
CgwWVGhlIFVuaXZlcnNpdHkgb2YgVXRhaDEMMAoGA1UECwwDTVNEMRgwFgYDVQQD
DA9YWFkgUGVyc29uYWwgQ0ExHzAdBgkqhkiG9w0BCQEWEDcxMDg1MDE0MkBxcS5j
b20wHhcNMjQwMzE1MDAzMjA1WhcNMjUwMzE1MDAzMjA1WjCBijELMAkGA1UEBhMC
VVMxDTALBgNVBAgMBFV0YWgxHzAdBgNVBAoMFlRoZSBVbml2ZXJzaXR5IG9mIFV0
YWgxDDAKBgNVBAsMA01TRDEcMBoGA1UEAwwTWFhZIFBlcnNvbmFsIENsaWVudDEf
MB0GCSqGSIb3DQEJARYQNzEwODUwMTQyQHFxLmNvbTCCAiIwDQYJKoZIhvcNAQEB
BQADggIPADCCAgoCggIBALQf1YqjyeRPZJ3gHRjjd3ORKAb4tSmDbFGJ7gsgLx3P
qAn8yK9DiYPyQCAyXErRiAoQ9pHuvJcgzsbUo7kVBxkBZTsoMyJKvSa9/RQyoEIu
MEwvXrAstoUG1EE0Aw3vgdChhsVijQy7cOum/4G9EuT+7lJV/WRDbLOB4BgMdUco
ecVcNDUAZxeNCwXKenqvcis/ScaGSZcEnusLoCw5ezILJ1Q5OLmw4XdgZFGNro17
ucAgwwRCCO5B25KDQEmfp75gKa0ulavveaKPWnKgZ1YTbESC/dfPHA9q4FjEEdoq
kKkRmsQXmmZECkbiDrzgJP3NOF7d6g3kI3aK6TyxhXVjg1yIujn6cGTdOChJ4Wo9
1syHQETBhFBtAI6kY7CdoJqKxF2YHCErZZhgi1OeuD8yKdRAu0cBziLhxLugnHyl
RKRPPU4km28XvODnMKtuTMmtKxizVSZTg426jakcRyczvpRHr5EIBojx/cWy4VHq
KPOMoB3fAMOXsjKc5Oy12TAHwu1icHDapvY4WGra/HgLCzFwx5jyrpjFTIJk2r0F
Ds+R18GZDJcq19uf6B6W52gW/HTEXii25mW6tmCwYHuYSZblfrXGu2X2zARCSiOj
CbgmQsjgy01uD2oMsXZIdzZzlNmiU3e4/1ZZ2u+3uu17RSER3W5mv+VoYN2s4Zkz
AgMBAAGjggE+MIIBOjAJBgNVHRMEAjAAMCwGCWCGSAGG+EIBDQQfFh1PcGVuU1NM
IEdlbmVyYXRlZCBDZXJ0aWZpY2F0ZTAdBgNVHQ4EFgQUCbTq2uC+frr/Ufs7Qrfr
7TjARmowgd8GA1UdIwSB1zCB1IAUpIGffMXd0G7pLKxGnZWJLJE7n5GhgaWkgaIw
gZ8xCzAJBgNVBAYTAlVTMQ0wCwYDVQQIDARVdGFoMRcwFQYDVQQHDA5TYWx0IExh
a2UgQ2l0eTEfMB0GA1UECgwWVGhlIFVuaXZlcnNpdHkgb2YgVXRhaDEMMAoGA1UE
CwwDTVNEMRgwFgYDVQQDDA9YWFkgUGVyc29uYWwgQ0ExHzAdBgkqhkiG9w0BCQEW
EDcxMDg1MDE0MkBxcS5jb22CFHFzVdUUXNpeO/nm0lndQkuAG97xMA0GCSqGSIb3
DQEBBAUAA4ICAQAKguv4+A+Ew0AJAcReUdoL425NAvvDljXP6EijCi9VnpZGyUv9
0ja9NnN+QvMqvmsnavl3HURs+oPDm9YesANYRiRv49IDbfpKDU0acMYXvYFENLcu
WbJYKFnTgjLoHl4KYvahTtl6DYgXrJpNUVX0uI5KIJ0E08eDPQ0CQVD/A6UUiNjk
SL+f3DcmPrim5CNSY1OMAec9KZDHCRVFQWhPuvshj/t7QRUJPtONWYP+lvv7EavR
WmFAIKIz7d5CI/2K7F5po+exhvxTGqju33Mqx/v10g5cGTzxR9Z/SY+srb9lOFWt
y1iqw5XTNUKPe0XlkoS1YlB72heJALbQhtiVeYebC3R1gHspS4VhxRl/1KEOkr+2
C9Xhgtnt3pwFyoU+uzNu22nMQGzYNTSpp2WRgEVM/oS2mlvxyNk0BKML/ZMHFGWx
vFH6qVkQ4n1HybcFC6I9rFE0FO9oD7jAGIAGnYd7q3UNiXoa5Lzll3MMy/Y+RmG7
r7ZIkbnu1WlB3JbnaMCp7HIYBJr7q7SiJEgtU67zKfQyZsT6RMwwhHOrYqEPLtNB
5XUD33TGo2EwSYGkoPxKDLblgLidqHG/Mlv/hIQkkxpncQkyVegmN/n2JzXt//k4
bquoEmAPM9mKuwV51qnnje7+z+uVwnn+OMXev4RRvJY07xcxCONvPxEr1A==
-----END CERTIFICATE-----
