Certificate:
    Data:
        Version: 3 (0x2)
        Serial Number: 4096 (0x1000)
        Signature Algorithm: md5WithRSAEncryption
        Issuer: C=US, ST=Utah, L=Salt Lake City, O=The University of Utah, OU=MSD, CN=XXY Personal CA/emailAddress=710850142@qq.com
        Validity
            Not Before: Mar 15 00:31:45 2024 GMT
            Not After : Mar 15 00:31:45 2025 GMT
        Subject: C=US, ST=Utah, O=The University of Utah, OU=MSD, CN=XXY Personal Server/emailAddress=710850142@qq.com
        Subject Public Key Info:
            Public Key Algorithm: rsaEncryption
                Public-Key: (4096 bit)
                Modulus:
                    00:a8:f5:53:79:d7:49:39:f7:3e:43:da:d9:52:0f:
                    bc:df:ef:5e:2c:66:48:f3:25:39:fe:93:bb:4a:df:
                    a9:d9:b6:c7:ff:4f:99:23:00:48:dc:7c:55:d0:95:
                    d1:09:ef:a8:3a:db:f3:13:a4:c2:ee:96:15:bc:92:
                    75:f2:ec:85:eb:66:38:da:51:1e:1f:b4:c2:d0:be:
                    28:ff:7b:5d:52:4d:78:4c:a5:2c:87:82:a3:7b:92:
                    50:55:57:e6:78:30:33:01:47:c7:f7:df:0c:92:74:
                    de:5a:f7:bf:c5:69:49:15:bf:0c:24:1f:4b:cf:df:
                    fc:08:21:af:2c:61:78:d4:21:d2:f5:29:40:eb:13:
                    5f:e5:3d:f0:16:52:48:dc:57:1e:07:f0:9a:e6:5c:
                    6e:f6:a2:a7:17:39:db:9f:42:83:cb:ad:ce:76:53:
                    d8:bd:17:f6:f8:c0:df:1a:02:cc:2e:7d:71:f3:39:
                    60:04:7f:b6:9f:25:6f:0d:b2:a4:ca:23:f3:23:9b:
                    d2:23:da:a0:17:45:6e:0a:a1:dc:c7:ff:7c:d0:a7:
                    12:01:0b:3b:03:bf:bc:a5:90:42:13:52:b7:8a:a9:
                    37:b5:e0:b1:88:98:f5:21:b5:96:81:2e:73:88:ac:
                    f2:5d:81:76:0c:9e:97:2a:00:f3:0e:4d:23:35:32:
                    fb:9e:60:9d:f6:71:8e:57:2f:09:df:05:da:00:27:
                    b6:fb:42:56:ca:12:6b:b5:0f:ff:ab:61:f9:08:66:
                    06:fd:9a:ca:1b:b7:4f:49:ac:09:4b:ff:27:d7:bc:
                    17:3f:77:4e:94:b1:6c:78:85:13:10:12:29:bd:ce:
                    2f:35:ac:ea:ee:05:30:8d:bb:67:67:7e:10:5a:c8:
                    0c:dc:84:99:61:5a:19:d9:02:31:0c:ce:0a:f8:d7:
                    e6:84:12:4a:fd:d9:8c:3f:48:f9:0e:33:40:98:19:
                    44:57:90:61:bf:dc:bf:67:8c:18:8e:26:63:9b:e3:
                    2f:6d:a9:5b:13:79:a5:f3:83:45:7a:a3:12:18:5b:
                    db:db:ef:c4:3e:d1:85:dc:ea:75:eb:78:a7:2f:c4:
                    41:0f:2c:29:a3:50:73:60:16:0c:77:ba:56:ec:84:
                    f4:1d:9c:88:00:63:20:f2:99:c3:32:8c:5d:71:e8:
                    e9:7f:fa:b3:48:f4:ff:0b:3e:ec:41:27:7f:f2:a4:
                    8c:e0:22:93:c6:fe:12:5e:7a:7e:ed:f3:10:c5:c0:
                    c2:f4:15:0e:87:fb:d1:d3:80:c4:39:08:ff:fa:66:
                    d8:71:ed:a7:35:e4:cf:d2:db:fc:d9:a2:af:34:0b:
                    1c:ea:19:10:2f:ec:4f:87:9b:08:50:9e:1d:57:71:
                    90:b7:1b
                Exponent: 65537 (0x10001)
        X509v3 extensions:
            X509v3 Basic Constraints: 
                CA:FALSE
            Netscape Comment: 
                OpenSSL Generated Certificate
            X509v3 Subject Key Identifier: 
                7E:52:11:47:9A:18:73:14:9F:B4:D9:6D:06:39:B1:73:A1:53:E5:BF
            X509v3 Authority Key Identifier: 
                keyid:A4:81:9F:7C:C5:DD:D0:6E:E9:2C:AC:46:9D:95:89:2C:91:3B:9F:91
                DirName:/C=US/ST=Utah/L=Salt Lake City/O=The University of Utah/OU=MSD/CN=XXY Personal CA/emailAddress=710850142@qq.com
                serial:71:73:55:D5:14:5C:DA:5E:3B:F9:E6:D2:59:DD:42:4B:80:1B:DE:F1
    Signature Algorithm: md5WithRSAEncryption
    Signature Value:
        90:7c:d9:bc:a7:85:0c:a1:e2:38:d3:10:e3:2c:8c:67:64:c7:
        52:c9:72:02:c4:29:33:5a:c2:7e:54:db:ab:bd:8b:62:17:9f:
        4a:36:7d:92:64:c2:f6:70:a2:46:45:1a:f0:c3:33:b1:33:da:
        97:49:ae:f1:0a:e8:c2:40:fb:bb:84:96:47:d1:61:2d:49:e7:
        f1:f2:02:d4:10:77:ae:74:10:d6:bc:f4:17:6c:a1:78:be:50:
        b1:09:d5:b8:f0:9a:26:d8:0f:b2:25:44:94:33:29:ba:3b:3b:
        31:c3:8a:12:98:ef:ba:08:53:8b:98:19:a1:31:aa:a4:ba:44:
        5b:d5:d0:9d:dc:ad:e5:61:3f:cc:b0:11:35:44:77:01:6d:b7:
        a9:6c:d6:e7:ba:6e:67:1d:95:8b:67:1a:d0:71:24:0c:27:ab:
        9f:99:63:dc:70:96:6c:e3:50:c0:47:fe:09:f6:2a:8b:84:bf:
        51:63:9a:d6:cc:3d:b3:bb:e6:0d:dc:0d:88:5a:1a:8b:bf:42:
        cf:97:79:a5:c0:5c:9c:0a:fd:e7:51:1f:2e:4a:43:b4:84:f2:
        16:83:c5:13:08:aa:54:ad:58:4f:fc:0b:53:3f:98:db:88:eb:
        44:79:77:f3:f6:69:11:50:b2:c6:ae:bf:12:eb:29:90:02:fb:
        4c:b2:aa:8a:aa:17:b9:5f:2f:4e:6f:d5:fc:44:06:2e:4a:c5:
        1d:c7:b9:9d:4e:70:c9:ad:53:90:50:84:2b:26:ba:b9:6f:4d:
        1f:37:0b:fe:da:05:b5:6e:7c:bb:f6:68:e0:83:b9:3e:e7:5f:
        6d:c6:7c:3e:e6:d4:cb:eb:f4:1a:d0:ef:8e:94:91:06:78:3d:
        b7:7c:84:2a:f5:76:cb:eb:d8:54:91:39:f7:e2:72:0b:b4:3c:
        cb:f5:c8:26:c2:6c:c8:51:80:fb:16:7f:4f:3f:d0:24:d6:ac:
        fb:c3:a8:10:5d:9d:7b:21:9e:c3:5a:22:49:af:59:eb:ea:8c:
        f4:94:30:c1:fe:74:89:44:1e:29:07:ec:b2:09:94:29:00:06:
        67:90:d3:15:c3:62:36:e0:87:be:e2:0c:ea:42:4e:ce:9b:a7:
        b5:2e:92:10:d7:02:7d:bc:d1:24:cd:5a:88:62:58:5b:69:39:
        19:e5:67:8f:43:b9:22:d2:33:b0:24:54:8a:9e:58:c9:00:ac:
        69:3a:ad:1c:7d:8d:89:33:27:39:0f:0e:17:24:72:94:b8:b8:
        c6:4f:53:d6:45:9a:28:d0:40:7f:e9:e4:58:48:a9:fe:ad:8a:
        d9:d4:57:54:c4:8e:81:53:f1:4a:41:87:59:e2:4d:1b:28:68:
        90:49:55:98:47:01:e0:1d
-----BEGIN CERTIFICATE-----
MIIG5zCCBM+gAwIBAgICEAAwDQYJKoZIhvcNAQEEBQAwgZ8xCzAJBgNVBAYTAlVT
MQ0wCwYDVQQIDARVdGFoMRcwFQYDVQQHDA5TYWx0IExha2UgQ2l0eTEfMB0GA1UE
CgwWVGhlIFVuaXZlcnNpdHkgb2YgVXRhaDEMMAoGA1UECwwDTVNEMRgwFgYDVQQD
DA9YWFkgUGVyc29uYWwgQ0ExHzAdBgkqhkiG9w0BCQEWEDcxMDg1MDE0MkBxcS5j
b20wHhcNMjQwMzE1MDAzMTQ1WhcNMjUwMzE1MDAzMTQ1WjCBijELMAkGA1UEBhMC
VVMxDTALBgNVBAgMBFV0YWgxHzAdBgNVBAoMFlRoZSBVbml2ZXJzaXR5IG9mIFV0
YWgxDDAKBgNVBAsMA01TRDEcMBoGA1UEAwwTWFhZIFBlcnNvbmFsIFNlcnZlcjEf
MB0GCSqGSIb3DQEJARYQNzEwODUwMTQyQHFxLmNvbTCCAiIwDQYJKoZIhvcNAQEB
BQADggIPADCCAgoCggIBAKj1U3nXSTn3PkPa2VIPvN/vXixmSPMlOf6Tu0rfqdm2
x/9PmSMASNx8VdCV0QnvqDrb8xOkwu6WFbySdfLshetmONpRHh+0wtC+KP97XVJN
eEylLIeCo3uSUFVX5ngwMwFHx/ffDJJ03lr3v8VpSRW/DCQfS8/f/AghryxheNQh
0vUpQOsTX+U98BZSSNxXHgfwmuZcbvaipxc5259Cg8utznZT2L0X9vjA3xoCzC59
cfM5YAR/tp8lbw2ypMoj8yOb0iPaoBdFbgqh3Mf/fNCnEgELOwO/vKWQQhNSt4qp
N7XgsYiY9SG1loEuc4is8l2BdgyelyoA8w5NIzUy+55gnfZxjlcvCd8F2gAntvtC
VsoSa7UP/6th+QhmBv2ayhu3T0msCUv/J9e8Fz93TpSxbHiFExASKb3OLzWs6u4F
MI27Z2d+EFrIDNyEmWFaGdkCMQzOCvjX5oQSSv3ZjD9I+Q4zQJgZRFeQYb/cv2eM
GI4mY5vjL22pWxN5pfODRXqjEhhb29vvxD7Rhdzqdet4py/EQQ8sKaNQc2AWDHe6
VuyE9B2ciABjIPKZwzKMXXHo6X/6s0j0/ws+7EEnf/KkjOAik8b+El56fu3zEMXA
wvQVDof70dOAxDkI//pm2HHtpzXkz9Lb/NmirzQLHOoZEC/sT4ebCFCeHVdxkLcb
AgMBAAGjggE+MIIBOjAJBgNVHRMEAjAAMCwGCWCGSAGG+EIBDQQfFh1PcGVuU1NM
IEdlbmVyYXRlZCBDZXJ0aWZpY2F0ZTAdBgNVHQ4EFgQUflIRR5oYcxSftNltBjmx
c6FT5b8wgd8GA1UdIwSB1zCB1IAUpIGffMXd0G7pLKxGnZWJLJE7n5GhgaWkgaIw
gZ8xCzAJBgNVBAYTAlVTMQ0wCwYDVQQIDARVdGFoMRcwFQYDVQQHDA5TYWx0IExh
a2UgQ2l0eTEfMB0GA1UECgwWVGhlIFVuaXZlcnNpdHkgb2YgVXRhaDEMMAoGA1UE
CwwDTVNEMRgwFgYDVQQDDA9YWFkgUGVyc29uYWwgQ0ExHzAdBgkqhkiG9w0BCQEW
EDcxMDg1MDE0MkBxcS5jb22CFHFzVdUUXNpeO/nm0lndQkuAG97xMA0GCSqGSIb3
DQEBBAUAA4ICAQCQfNm8p4UMoeI40xDjLIxnZMdSyXICxCkzWsJ+VNurvYtiF59K
Nn2SZML2cKJGRRrwwzOxM9qXSa7xCujCQPu7hJZH0WEtSefx8gLUEHeudBDWvPQX
bKF4vlCxCdW48Jom2A+yJUSUMym6Ozsxw4oSmO+6CFOLmBmhMaqkukRb1dCd3K3l
YT/MsBE1RHcBbbepbNbnum5nHZWLZxrQcSQMJ6ufmWPccJZs41DAR/4J9iqLhL9R
Y5rWzD2zu+YN3A2IWhqLv0LPl3mlwFycCv3nUR8uSkO0hPIWg8UTCKpUrVhP/AtT
P5jbiOtEeXfz9mkRULLGrr8S6ymQAvtMsqqKqhe5Xy9Ob9X8RAYuSsUdx7mdTnDJ
rVOQUIQrJrq5b00fNwv+2gW1bny79mjgg7k+519txnw+5tTL6/Qa0O+OlJEGeD23
fIQq9XbL69hUkTn34nILtDzL9cgmwmzIUYD7Fn9PP9Ak1qz7w6gQXZ17IZ7DWiJJ
r1nr6oz0lDDB/nSJRB4pB+yyCZQpAAZnkNMVw2I24Ie+4gzqQk7Om6e1LpIQ1wJ9
vNEkzVqIYlhbaTkZ5WePQ7ki0jOwJFSKnljJAKxpOq0cfY2JMyc5Dw4XJHKUuLjG
T1PWRZoo0EB/6eRYSKn+rYrZ1FdUxI6BU/FKQYdZ4k0bKGiQSVWYRwHgHQ==
-----END CERTIFICATE-----
